target datalayout = "e-m:e-p270:32:32-p271:32:32-p272:64:64-i64:64-i128:128-f80:128-n8:16:32:64-S128"
target triple = "x86_64-pc-linux-gnu"

; Function Attrs: nounwind uwtable
define internal i32 @HorizontalSum_SSE41(<2 x i64> noundef %0) #1 {
  %2 = alloca <2 x i64>, align 16
  %3 = alloca <4 x i32>, align 16
  %4 = alloca <2 x i64>, align 16
  %5 = alloca <2 x i64>, align 16
  %6 = alloca <2 x i64>, align 16
  %7 = alloca <2 x i64>, align 16
  %8 = alloca <2 x i64>, align 16
  store <2 x i64> %0, ptr %8, align 16
  %9 = load <2 x i64>, ptr %8, align 16
  %10 = load <2 x i64>, ptr %8, align 16
  %11 = bitcast <2 x i64> %10 to <16 x i8>
  %12 = shufflevector <16 x i8> %11, <16 x i8> zeroinitializer, <16 x i32> <i32 8, i32 9, i32 10, i32 11, i32 12, i32 13, i32 14, i32 15, i32 16, i32 17, i32 18, i32 19, i32 20, i32 21, i32 22, i32 23>
  %13 = bitcast <16 x i8> %12 to <2 x i64>
  store <2 x i64> %9, ptr %4, align 16
  store <2 x i64> %13, ptr %5, align 16
  %14 = load <2 x i64>, ptr %4, align 16
  %15 = bitcast <2 x i64> %14 to <4 x i32>
  %16 = load <2 x i64>, ptr %5, align 16
  %17 = bitcast <2 x i64> %16 to <4 x i32>
  %18 = add <4 x i32> %15, %17
  %19 = bitcast <4 x i32> %18 to <2 x i64>
  store <2 x i64> %19, ptr %8, align 16
  %20 = load <2 x i64>, ptr %8, align 16
  %21 = load <2 x i64>, ptr %8, align 16
  %22 = bitcast <2 x i64> %21 to <16 x i8>
  %23 = shufflevector <16 x i8> %22, <16 x i8> zeroinitializer, <16 x i32> <i32 4, i32 5, i32 6, i32 7, i32 8, i32 9, i32 10, i32 11, i32 12, i32 13, i32 14, i32 15, i32 16, i32 17, i32 18, i32 19>
  %24 = bitcast <16 x i8> %23 to <2 x i64>
  store <2 x i64> %20, ptr %6, align 16
  store <2 x i64> %24, ptr %7, align 16
  %25 = load <2 x i64>, ptr %6, align 16
  %26 = bitcast <2 x i64> %25 to <4 x i32>
  %27 = load <2 x i64>, ptr %7, align 16
  %28 = bitcast <2 x i64> %27 to <4 x i32>
  %29 = add <4 x i32> %26, %28
  %30 = bitcast <4 x i32> %29 to <2 x i64>
  store <2 x i64> %30, ptr %8, align 16
  %31 = load <2 x i64>, ptr %8, align 16
  store <2 x i64> %31, ptr %2, align 16
  %32 = load <2 x i64>, ptr %2, align 16
  %33 = bitcast <2 x i64> %32 to <4 x i32>
  store <4 x i32> %33, ptr %3, align 16
  %34 = load <4 x i32>, ptr %3, align 16
  %35 = extractelement <4 x i32> %34, i32 0
  ret i32 %35
}

; Function Attrs: nounwind uwtable
define internal i32 @ExtraCost_SSE41(ptr noundef %0, i32 noundef %1) #1 {
  %3 = alloca <2 x i64>, align 16
  %4 = alloca <2 x i64>, align 16
  %5 = alloca <2 x i64>, align 16
  %6 = alloca <2 x i64>, align 16
  %7 = alloca <2 x i64>, align 16
  %8 = alloca <2 x i64>, align 16
  %9 = alloca ptr, align 8
  %10 = alloca ptr, align 8
  %11 = alloca i32, align 4
  %12 = alloca i32, align 4
  %13 = alloca i32, align 4
  %14 = alloca i32, align 4
  %15 = alloca <4 x i32>, align 16
  %16 = alloca i32, align 4
  %17 = alloca i32, align 4
  %18 = alloca i32, align 4
  %19 = alloca i32, align 4
  %20 = alloca <4 x i32>, align 16
  %21 = alloca ptr, align 8
  %22 = alloca i32, align 4
  %23 = alloca i32, align 4
  %24 = alloca <2 x i64>, align 16
  %25 = alloca i32, align 4
  %26 = alloca <2 x i64>, align 16
  %27 = alloca <2 x i64>, align 16
  %28 = alloca <2 x i64>, align 16
  %29 = alloca <2 x i64>, align 16
  %30 = alloca <2 x i64>, align 16
  store ptr %0, ptr %21, align 8
  store i32 %1, ptr %22, align 4
  %31 = load ptr, ptr %21, align 8
  %32 = getelementptr inbounds i32, ptr %31, i64 7
  %33 = load i32, ptr %32, align 4
  %34 = mul i32 2, %33
  %35 = load ptr, ptr %21, align 8
  %36 = getelementptr inbounds i32, ptr %35, i64 6
  %37 = load i32, ptr %36, align 4
  %38 = mul i32 2, %37
  %39 = load ptr, ptr %21, align 8
  %40 = getelementptr inbounds i32, ptr %39, i64 5
  %41 = load i32, ptr %40, align 4
  %42 = load ptr, ptr %21, align 8
  %43 = getelementptr inbounds i32, ptr %42, i64 4
  %44 = load i32, ptr %43, align 4
  store i32 %34, ptr %11, align 4
  store i32 %38, ptr %12, align 4
  store i32 %41, ptr %13, align 4
  store i32 %44, ptr %14, align 4
  %45 = load i32, ptr %14, align 4
  %46 = insertelement <4 x i32> poison, i32 %45, i32 0
  %47 = load i32, ptr %13, align 4
  %48 = insertelement <4 x i32> %46, i32 %47, i32 1
  %49 = load i32, ptr %12, align 4
  %50 = insertelement <4 x i32> %48, i32 %49, i32 2
  %51 = load i32, ptr %11, align 4
  %52 = insertelement <4 x i32> %50, i32 %51, i32 3
  store <4 x i32> %52, ptr %15, align 16
  %53 = load <4 x i32>, ptr %15, align 16
  %54 = bitcast <4 x i32> %53 to <2 x i64>
  store <2 x i64> %54, ptr %24, align 16
  store i32 8, ptr %23, align 4
  br label %55

55:                                               ; preds = %118, %2
  %56 = load i32, ptr %23, align 4
  %57 = add nsw i32 %56, 8
  %58 = load i32, ptr %22, align 4
  %59 = icmp sle i32 %57, %58
  br i1 %59, label %60, label %121

60:                                               ; preds = %55
  %61 = load i32, ptr %23, align 4
  %62 = sub nsw i32 %61, 2
  %63 = ashr i32 %62, 1
  store i32 %63, ptr %25, align 4
  %64 = load ptr, ptr %21, align 8
  %65 = load i32, ptr %23, align 4
  %66 = sext i32 %65 to i64
  %67 = getelementptr inbounds i32, ptr %64, i64 %66
  store ptr %67, ptr %9, align 8
  %68 = load ptr, ptr %9, align 8
  %69 = load <2 x i64>, ptr %68, align 1
  store <2 x i64> %69, ptr %26, align 16
  %70 = load ptr, ptr %21, align 8
  %71 = load i32, ptr %23, align 4
  %72 = add nsw i32 %71, 4
  %73 = sext i32 %72 to i64
  %74 = getelementptr inbounds i32, ptr %70, i64 %73
  store ptr %74, ptr %10, align 8
  %75 = load ptr, ptr %10, align 8
  %76 = load <2 x i64>, ptr %75, align 1
  store <2 x i64> %76, ptr %27, align 16
  %77 = load i32, ptr %25, align 4
  %78 = add nsw i32 %77, 3
  %79 = load i32, ptr %25, align 4
  %80 = add nsw i32 %79, 2
  %81 = load i32, ptr %25, align 4
  %82 = add nsw i32 %81, 1
  %83 = load i32, ptr %25, align 4
  store i32 %78, ptr %16, align 4
  store i32 %80, ptr %17, align 4
  store i32 %82, ptr %18, align 4
  store i32 %83, ptr %19, align 4
  %84 = load i32, ptr %19, align 4
  %85 = insertelement <4 x i32> poison, i32 %84, i32 0
  %86 = load i32, ptr %18, align 4
  %87 = insertelement <4 x i32> %85, i32 %86, i32 1
  %88 = load i32, ptr %17, align 4
  %89 = insertelement <4 x i32> %87, i32 %88, i32 2
  %90 = load i32, ptr %16, align 4
  %91 = insertelement <4 x i32> %89, i32 %90, i32 3
  store <4 x i32> %91, ptr %20, align 16
  %92 = load <4 x i32>, ptr %20, align 16
  %93 = bitcast <4 x i32> %92 to <2 x i64>
  store <2 x i64> %93, ptr %28, align 16
  %94 = load <2 x i64>, ptr %26, align 16
  %95 = load <2 x i64>, ptr %27, align 16
  store <2 x i64> %94, ptr %7, align 16
  store <2 x i64> %95, ptr %8, align 16
  %96 = load <2 x i64>, ptr %7, align 16
  %97 = bitcast <2 x i64> %96 to <4 x i32>
  %98 = load <2 x i64>, ptr %8, align 16
  %99 = bitcast <2 x i64> %98 to <4 x i32>
  %100 = call <4 x i32> @llvm.x86.ssse3.phadd.d.128(<4 x i32> %97, <4 x i32> %99)
  %101 = bitcast <4 x i32> %100 to <2 x i64>
  store <2 x i64> %101, ptr %29, align 16
  %102 = load <2 x i64>, ptr %29, align 16
  %103 = load <2 x i64>, ptr %28, align 16
  store <2 x i64> %102, ptr %5, align 16
  store <2 x i64> %103, ptr %6, align 16
  %104 = load <2 x i64>, ptr %5, align 16
  %105 = bitcast <2 x i64> %104 to <4 x i32>
  %106 = load <2 x i64>, ptr %6, align 16
  %107 = bitcast <2 x i64> %106 to <4 x i32>
  %108 = mul <4 x i32> %105, %107
  %109 = bitcast <4 x i32> %108 to <2 x i64>
  store <2 x i64> %109, ptr %30, align 16
  %110 = load <2 x i64>, ptr %30, align 16
  %111 = load <2 x i64>, ptr %24, align 16
  store <2 x i64> %110, ptr %3, align 16
  store <2 x i64> %111, ptr %4, align 16
  %112 = load <2 x i64>, ptr %3, align 16
  %113 = bitcast <2 x i64> %112 to <4 x i32>
  %114 = load <2 x i64>, ptr %4, align 16
  %115 = bitcast <2 x i64> %114 to <4 x i32>
  %116 = add <4 x i32> %113, %115
  %117 = bitcast <4 x i32> %116 to <2 x i64>
  store <2 x i64> %117, ptr %24, align 16
  br label %118

118:                                              ; preds = %60
  %119 = load i32, ptr %23, align 4
  %120 = add nsw i32 %119, 8
  store i32 %120, ptr %23, align 4
  br label %55, !llvm.loop !4

121:                                              ; preds = %55
  %122 = load <2 x i64>, ptr %24, align 16
  %123 = call i32 @HorizontalSum_SSE41(<2 x i64> noundef %122)
  ret i32 %123
}