; Function Attrs: nofree norecurse nosync nounwind memory(argmem: read) uwtable
define internal i32 @ExtraCost_SSE41(ptr nocapture noundef readonly %0, i32 noundef %1) #1 {
  %3 = getelementptr inbounds i8, ptr %0, i64 24
  %4 = load <2 x i32>, ptr %3, align 4
  %5 = shl <2 x i32> %4, <i32 1, i32 1>
  %6 = getelementptr inbounds i8, ptr %0, i64 16
  %7 = load <2 x i32>, ptr %6, align 4
  %8 = shufflevector <2 x i32> %7, <2 x i32> %5, <4 x i32> <i32 0, i32 1, i32 2, i32 3>
  %.not42 = icmp slt i32 %1, 16
  br i1 %.not42, label %._crit_edge, label %.lr.ph.preheader

.lr.ph.preheader:                                 ; preds = %2
  %9 = zext nneg i32 %1 to i64
  br label %.lr.ph

.lr.ph:                                           ; preds = %.lr.ph.preheader, %.lr.ph
  %indvars.iv45 = phi i64 [ 8, %.lr.ph.preheader ], [ %indvars.iv.next46, %.lr.ph ]
  %indvars.iv = phi i64 [ 16, %.lr.ph.preheader ], [ %indvars.iv.next, %.lr.ph ]
  %.040.in43 = phi <4 x i32> [ %8, %.lr.ph.preheader ], [ %27, %.lr.ph ]
  %10 = trunc i64 %indvars.iv45 to i32
  %11 = add i32 %10, -2
  %12 = ashr exact i32 %11, 1
  %13 = getelementptr inbounds i32, ptr %0, i64 %indvars.iv45
  %14 = load <4 x i32>, ptr %13, align 1
  %15 = or disjoint i64 %indvars.iv45, 4
  %16 = getelementptr inbounds i32, ptr %0, i64 %15
  %17 = load <4 x i32>, ptr %16, align 1
  %18 = add nsw i32 %12, 3
  %19 = add nsw i32 %12, 2
  %20 = add nsw i32 %12, 1
  %21 = insertelement <4 x i32> poison, i32 %12, i64 0
  %22 = insertelement <4 x i32> %21, i32 %20, i64 1
  %23 = insertelement <4 x i32> %22, i32 %19, i64 2
  %24 = insertelement <4 x i32> %23, i32 %18, i64 3
  %25 = tail call <4 x i32> @llvm.x86.ssse3.phadd.d.128(<4 x i32> %14, <4 x i32> %17)
  %26 = mul <4 x i32> %25, %24
  %27 = add <4 x i32> %26, %.040.in43
  %indvars.iv.next = add nuw nsw i64 %indvars.iv, 8
  %.not = icmp ugt i64 %indvars.iv.next, %9
  %indvars.iv.next46 = add nuw nsw i64 %indvars.iv45, 8
  br i1 %.not, label %._crit_edge, label %.lr.ph, !llvm.loop !4

._crit_edge:                                      ; preds = %.lr.ph, %2
  %.040.in.lcssa = phi <4 x i32> [ %8, %2 ], [ %27, %.lr.ph ]
  %28 = shufflevector <4 x i32> %.040.in.lcssa, <4 x i32> <i32 0, i32 0, i32 poison, i32 poison>, <4 x i32> <i32 2, i32 3, i32 4, i32 5>
  %29 = add <4 x i32> %.040.in.lcssa, %28
  %30 = shufflevector <4 x i32> %29, <4 x i32> poison, <4 x i32> <i32 1, i32 poison, i32 poison, i32 poison>
  %31 = add <4 x i32> %29, %30
  %32 = extractelement <4 x i32> %31, i64 0
  ret i32 %32
}